target datalayout = "e-m:e-p270:32:32-p271:32:32-p272:64:64-i64:64-i128:128-f80:128-n8:16:32:64-S128"
target triple = "x86_64-pc-linux-gnu"

%struct.anon.1 = type { i64, i64 }
%struct.StringInfoData = type { ptr, i32, i32, i32 }
%struct.WalReceiverFunctionsType = type { ptr, ptr, ptr, ptr, ptr, ptr, ptr, ptr, ptr, ptr, ptr, ptr, ptr, ptr, ptr, ptr, ptr }

@WalReceiverFunctions = dso_local global ptr null, align 8
@.str.1 = private unnamed_addr constant [14 x i8] c"walreceiver.c\00", align 1
@wrconn = internal global ptr null, align 8
@LogstreamResult = internal global %struct.anon.1 zeroinitializer, align 8
@reply_message = internal global %struct.StringInfoData zeroinitializer, align 8
@wakeup = internal global [4 x i64] zeroinitializer, align 16
@wal_receiver_status_interval = dso_local global i32 0, align 4
@wal_receiver_timeout = dso_local global i32 0, align 4
@hot_standby_feedback = dso_local global i8 0, align 1
@XLogWalRcvSendReply.writePtr = internal global i64 0, align 8
@XLogWalRcvSendReply.flushPtr = internal global i64 0, align 8
@.str.36 = private unnamed_addr constant [46 x i8] c"sending write %X/%X flush %X/%X apply %X/%X%s\00", align 1
@.str.37 = private unnamed_addr constant [19 x i8] c" (reply requested)\00", align 1
@.str.38 = private unnamed_addr constant [1 x i8] zeroinitializer, align 1
@__func__.XLogWalRcvSendReply = private unnamed_addr constant [20 x i8] c"XLogWalRcvSendReply\00", align 1

; Function Attrs: inlinehint nounwind uwtable
define internal void @pq_writeint8(ptr noalias noundef %0, i8 noundef zeroext %1) #6 {
  %3 = alloca ptr, align 8
  %4 = alloca i8, align 1
  %5 = alloca i8, align 1
  store ptr %0, ptr %3, align 8
  store i8 %1, ptr %4, align 1
  call void @llvm.lifetime.start.p0(i64 1, ptr %5) #16
  %6 = load i8, ptr %4, align 1
  store i8 %6, ptr %5, align 1
  %7 = load ptr, ptr %3, align 8
  %8 = getelementptr inbounds nuw %struct.StringInfoData, ptr %7, i32 0, i32 0
  %9 = load ptr, ptr %8, align 8
  %10 = load ptr, ptr %3, align 8
  %11 = getelementptr inbounds nuw %struct.StringInfoData, ptr %10, i32 0, i32 1
  %12 = load i32, ptr %11, align 8
  %13 = sext i32 %12 to i64
  %14 = getelementptr inbounds i8, ptr %9, i64 %13
  call void @llvm.memcpy.p0.p0.i64(ptr align 1 %14, ptr align 1 %5, i64 1, i1 false)
  %15 = load ptr, ptr %3, align 8
  %16 = getelementptr inbounds nuw %struct.StringInfoData, ptr %15, i32 0, i32 1
  %17 = load i32, ptr %16, align 8
  %18 = sext i32 %17 to i64
  %19 = add i64 %18, 1
  %20 = trunc i64 %19 to i32
  store i32 %20, ptr %16, align 8
  call void @llvm.lifetime.end.p0(i64 1, ptr %5) #16
  ret void
}

; Function Attrs: inlinehint nounwind uwtable
define internal void @pq_writeint64(ptr noalias noundef %0, i64 noundef %1) #6 {
  %3 = alloca ptr, align 8
  %4 = alloca i64, align 8
  %5 = alloca i64, align 8
  store ptr %0, ptr %3, align 8
  store i64 %1, ptr %4, align 8
  call void @llvm.lifetime.start.p0(i64 8, ptr %5) #16
  %6 = load i64, ptr %4, align 8
  %7 = call i64 @llvm.bswap.i64(i64 %6)
  store i64 %7, ptr %5, align 8
  %8 = load ptr, ptr %3, align 8
  %9 = getelementptr inbounds nuw %struct.StringInfoData, ptr %8, i32 0, i32 0
  %10 = load ptr, ptr %9, align 8
  %11 = load ptr, ptr %3, align 8
  %12 = getelementptr inbounds nuw %struct.StringInfoData, ptr %11, i32 0, i32 1
  %13 = load i32, ptr %12, align 8
  %14 = sext i32 %13 to i64
  %15 = getelementptr inbounds i8, ptr %10, i64 %14
  call void @llvm.memcpy.p0.p0.i64(ptr align 1 %15, ptr align 8 %5, i64 8, i1 false)
  %16 = load ptr, ptr %3, align 8
  %17 = getelementptr inbounds nuw %struct.StringInfoData, ptr %16, i32 0, i32 1
  %18 = load i32, ptr %17, align 8
  %19 = sext i32 %18 to i64
  %20 = add i64 %19, 8
  %21 = trunc i64 %20 to i32
  store i32 %21, ptr %17, align 8
  call void @llvm.lifetime.end.p0(i64 8, ptr %5) #16
  ret void
}

; Function Attrs: inlinehint nounwind uwtable
define internal void @pq_sendint8(ptr noundef %0, i8 noundef zeroext %1) #6 {
  %3 = alloca ptr, align 8
  %4 = alloca i8, align 1
  store ptr %0, ptr %3, align 8
  store i8 %1, ptr %4, align 1
  %5 = load ptr, ptr %3, align 8
  call void @enlargeStringInfo(ptr noundef %5, i32 noundef 1)
  %6 = load ptr, ptr %3, align 8
  %7 = load i8, ptr %4, align 1
  call void @pq_writeint8(ptr noundef %6, i8 noundef zeroext %7)
  ret void
}

; Function Attrs: inlinehint nounwind uwtable
define internal void @pq_sendint64(ptr noundef %0, i64 noundef %1) #6 {
  %3 = alloca ptr, align 8
  %4 = alloca i64, align 8
  store ptr %0, ptr %3, align 8
  store i64 %1, ptr %4, align 8
  %5 = load ptr, ptr %3, align 8
  call void @enlargeStringInfo(ptr noundef %5, i32 noundef 8)
  %6 = load ptr, ptr %3, align 8
  %7 = load i64, ptr %4, align 8
  call void @pq_writeint64(ptr noundef %6, i64 noundef %7)
  ret void
}

; Function Attrs: inlinehint nounwind uwtable
define internal void @pq_sendbyte(ptr noundef %0, i8 noundef zeroext %1) #6 {
  %3 = alloca ptr, align 8
  %4 = alloca i8, align 1
  store ptr %0, ptr %3, align 8
  store i8 %1, ptr %4, align 1
  %5 = load ptr, ptr %3, align 8
  %6 = load i8, ptr %4, align 1
  call void @pq_sendint8(ptr noundef %5, i8 noundef zeroext %6)
  ret void
}

; Function Attrs: nounwind uwtable
define internal void @WalRcvComputeNextWakeup(i32 noundef %0, i64 noundef %1) #0 {
  %3 = alloca i32, align 4
  %4 = alloca i64, align 8
  store i32 %0, ptr %3, align 4
  store i64 %1, ptr %4, align 8
  %5 = load i32, ptr %3, align 4
  switch i32 %5, label %78 [
    i32 0, label %6
    i32 1, label %23
    i32 3, label %41
    i32 2, label %61
  ]

6:                                                ; preds = %2
  %7 = load i32, ptr @wal_receiver_timeout, align 4
  %8 = icmp sle i32 %7, 0
  br i1 %8, label %9, label %13

9:                                                ; preds = %6
  %10 = load i32, ptr %3, align 4
  %11 = zext i32 %10 to i64
  %12 = getelementptr inbounds nuw [4 x i64], ptr @wakeup, i64 0, i64 %11
  store i64 9223372036854775807, ptr %12, align 8
  br label %22

13:                                               ; preds = %6
  %14 = load i64, ptr %4, align 8
  %15 = load i32, ptr @wal_receiver_timeout, align 4
  %16 = sext i32 %15 to i64
  %17 = mul i64 %16, 1000
  %18 = add i64 %14, %17
  %19 = load i32, ptr %3, align 4
  %20 = zext i32 %19 to i64
  %21 = getelementptr inbounds nuw [4 x i64], ptr @wakeup, i64 0, i64 %20
  store i64 %18, ptr %21, align 8
  br label %22

22:                                               ; preds = %13, %9
  br label %78

23:                                               ; preds = %2
  %24 = load i32, ptr @wal_receiver_timeout, align 4
  %25 = icmp sle i32 %24, 0
  br i1 %25, label %26, label %30

26:                                               ; preds = %23
  %27 = load i32, ptr %3, align 4
  %28 = zext i32 %27 to i64
  %29 = getelementptr inbounds nuw [4 x i64], ptr @wakeup, i64 0, i64 %28
  store i64 9223372036854775807, ptr %29, align 8
  br label %40

30:                                               ; preds = %23
  %31 = load i64, ptr %4, align 8
  %32 = load i32, ptr @wal_receiver_timeout, align 4
  %33 = sdiv i32 %32, 2
  %34 = sext i32 %33 to i64
  %35 = mul i64 %34, 1000
  %36 = add i64 %31, %35
  %37 = load i32, ptr %3, align 4
  %38 = zext i32 %37 to i64
  %39 = getelementptr inbounds nuw [4 x i64], ptr @wakeup, i64 0, i64 %38
  store i64 %36, ptr %39, align 8
  br label %40

40:                                               ; preds = %30, %26
  br label %78

41:                                               ; preds = %2
  %42 = load i8, ptr @hot_standby_feedback, align 1, !range !6, !noundef !7
  %43 = trunc i8 %42 to i1
  br i1 %43, label %44, label %47

44:                                               ; preds = %41
  %45 = load i32, ptr @wal_receiver_status_interval, align 4
  %46 = icmp sle i32 %45, 0
  br i1 %46, label %47, label %51

47:                                               ; preds = %44, %41
  %48 = load i32, ptr %3, align 4
  %49 = zext i32 %48 to i64
  %50 = getelementptr inbounds nuw [4 x i64], ptr @wakeup, i64 0, i64 %49
  store i64 9223372036854775807, ptr %50, align 8
  br label %60

51:                                               ; preds = %44
  %52 = load i64, ptr %4, align 8
  %53 = load i32, ptr @wal_receiver_status_interval, align 4
  %54 = sext i32 %53 to i64
  %55 = mul i64 %54, 1000000
  %56 = add i64 %52, %55
  %57 = load i32, ptr %3, align 4
  %58 = zext i32 %57 to i64
  %59 = getelementptr inbounds nuw [4 x i64], ptr @wakeup, i64 0, i64 %58
  store i64 %56, ptr %59, align 8
  br label %60

60:                                               ; preds = %51, %47
  br label %78

61:                                               ; preds = %2
  %62 = load i32, ptr @wal_receiver_status_interval, align 4
  %63 = icmp sle i32 %62, 0
  br i1 %63, label %64, label %68

64:                                               ; preds = %61
  %65 = load i32, ptr %3, align 4
  %66 = zext i32 %65 to i64
  %67 = getelementptr inbounds nuw [4 x i64], ptr @wakeup, i64 0, i64 %66
  store i64 9223372036854775807, ptr %67, align 8
  br label %77

68:                                               ; preds = %61
  %69 = load i64, ptr %4, align 8
  %70 = load i32, ptr @wal_receiver_status_interval, align 4
  %71 = sext i32 %70 to i64
  %72 = mul i64 %71, 1000000
  %73 = add i64 %69, %72
  %74 = load i32, ptr %3, align 4
  %75 = zext i32 %74 to i64
  %76 = getelementptr inbounds nuw [4 x i64], ptr @wakeup, i64 0, i64 %75
  store i64 %73, ptr %76, align 8
  br label %77

77:                                               ; preds = %68, %64
  br label %78

78:                                               ; preds = %2, %77, %60, %40, %22
  ret void
}

; Function Attrs: nounwind uwtable
define internal void @XLogWalRcvSendReply(i1 noundef zeroext %0, i1 noundef zeroext %1) #0 {
  %3 = alloca i8, align 1
  %4 = alloca i8, align 1
  %5 = alloca i64, align 8
  %6 = alloca i64, align 8
  %7 = alloca i32, align 4
  %8 = alloca i32, align 4
  %9 = alloca i32, align 4
  %10 = alloca i32, align 4
  %11 = zext i1 %0 to i8
  store i8 %11, ptr %3, align 1
  %12 = zext i1 %1 to i8
  store i8 %12, ptr %4, align 1
  call void @llvm.lifetime.start.p0(i64 8, ptr %5) #16
  call void @llvm.lifetime.start.p0(i64 8, ptr %6) #16
  %13 = load i8, ptr %3, align 1, !range !6, !noundef !7
  %14 = trunc i8 %13 to i1
  br i1 %14, label %19, label %15

15:                                               ; preds = %2
  %16 = load i32, ptr @wal_receiver_status_interval, align 4
  %17 = icmp sle i32 %16, 0
  br i1 %17, label %18, label %19

18:                                               ; preds = %15
  store i32 1, ptr %7, align 4
  br label %92

19:                                               ; preds = %15, %2
  %20 = call i64 @GetCurrentTimestamp()
  store i64 %20, ptr %6, align 8
  %21 = load i8, ptr %3, align 1, !range !6, !noundef !7
  %22 = trunc i8 %21 to i1
  br i1 %22, label %36, label %23

23:                                               ; preds = %19
  %24 = load i64, ptr @XLogWalRcvSendReply.writePtr, align 8
  %25 = load i64, ptr @LogstreamResult, align 8
  %26 = icmp eq i64 %24, %25
  br i1 %26, label %27, label %36

27:                                               ; preds = %23
  %28 = load i64, ptr @XLogWalRcvSendReply.flushPtr, align 8
  %29 = load i64, ptr getelementptr inbounds nuw (%struct.anon.1, ptr @LogstreamResult, i32 0, i32 1), align 8
  %30 = icmp eq i64 %28, %29
  br i1 %30, label %31, label %36

31:                                               ; preds = %27
  %32 = load i64, ptr %6, align 8
  %33 = load i64, ptr getelementptr inbounds ([4 x i64], ptr @wakeup, i64 0, i64 2), align 16
  %34 = icmp slt i64 %32, %33
  br i1 %34, label %35, label %36

35:                                               ; preds = %31
  store i32 1, ptr %7, align 4
  br label %92

36:                                               ; preds = %31, %27, %23, %19
  %37 = load i64, ptr %6, align 8
  call void @WalRcvComputeNextWakeup(i32 noundef 2, i64 noundef %37)
  %38 = load i64, ptr @LogstreamResult, align 8
  store i64 %38, ptr @XLogWalRcvSendReply.writePtr, align 8
  %39 = load i64, ptr getelementptr inbounds nuw (%struct.anon.1, ptr @LogstreamResult, i32 0, i32 1), align 8
  store i64 %39, ptr @XLogWalRcvSendReply.flushPtr, align 8
  %40 = call i64 @GetXLogReplayRecPtr(ptr noundef null)
  store i64 %40, ptr %5, align 8
  call void @resetStringInfo(ptr noundef @reply_message)
  call void @pq_sendbyte(ptr noundef @reply_message, i8 noundef zeroext 114)
  %41 = load i64, ptr @XLogWalRcvSendReply.writePtr, align 8
  call void @pq_sendint64(ptr noundef @reply_message, i64 noundef %41)
  %42 = load i64, ptr @XLogWalRcvSendReply.flushPtr, align 8
  call void @pq_sendint64(ptr noundef @reply_message, i64 noundef %42)
  %43 = load i64, ptr %5, align 8
  call void @pq_sendint64(ptr noundef @reply_message, i64 noundef %43)
  %44 = call i64 @GetCurrentTimestamp()
  call void @pq_sendint64(ptr noundef @reply_message, i64 noundef %44)
  %45 = load i8, ptr %4, align 1, !range !6, !noundef !7
  %46 = trunc i8 %45 to i1
  %47 = select i1 %46, i32 1, i32 0
  %48 = trunc i32 %47 to i8
  call void @pq_sendbyte(ptr noundef @reply_message, i8 noundef zeroext %48)
  br label %49

49:                                               ; preds = %36
  br i1 false, label %50, label %52

50:                                               ; preds = %49
  %51 = call zeroext i1 @errstart_cold(i32 noundef 13, ptr noundef null) #15
  br i1 %51, label %54, label %83

52:                                               ; preds = %49
  %53 = call zeroext i1 @errstart(i32 noundef 13, ptr noundef null)
  br i1 %53, label %54, label %83

54:                                               ; preds = %52, %50
  br label %55

55:                                               ; preds = %54
  br label %56

56:                                               ; preds = %55
  br label %57

57:                                               ; preds = %56
  store i32 1, ptr %8, align 4
  %58 = load i64, ptr @XLogWalRcvSendReply.writePtr, align 8
  %59 = lshr i64 %58, 32
  %60 = trunc i64 %59 to i32
  %61 = load i64, ptr @XLogWalRcvSendReply.writePtr, align 8
  %62 = trunc i64 %61 to i32
  br label %63

63:                                               ; preds = %57
  br label %64

64:                                               ; preds = %63
  br label %65

65:                                               ; preds = %64
  store i32 1, ptr %9, align 4
  %66 = load i64, ptr @XLogWalRcvSendReply.flushPtr, align 8
  %67 = lshr i64 %66, 32
  %68 = trunc i64 %67 to i32
  %69 = load i64, ptr @XLogWalRcvSendReply.flushPtr, align 8
  %70 = trunc i64 %69 to i32
  br label %71

71:                                               ; preds = %65
  br label %72

72:                                               ; preds = %71
  br label %73

73:                                               ; preds = %72
  store i32 1, ptr %10, align 4
  %74 = load i64, ptr %5, align 8
  %75 = lshr i64 %74, 32
  %76 = trunc i64 %75 to i32
  %77 = load i64, ptr %5, align 8
  %78 = trunc i64 %77 to i32
  %79 = load i8, ptr %4, align 1, !range !6, !noundef !7
  %80 = trunc i8 %79 to i1
  %81 = select i1 %80, ptr @.str.37, ptr @.str.38
  %82 = call i32 (ptr, ...) @errmsg_internal(ptr noundef @.str.36, i32 noundef %60, i32 noundef %62, i32 noundef %68, i32 noundef %70, i32 noundef %76, i32 noundef %78, ptr noundef %81)
  call void @errfinish(ptr noundef @.str.1, i32 noundef 1154, ptr noundef @__func__.XLogWalRcvSendReply)
  br label %83

83:                                               ; preds = %73, %52, %50
  br label %84

84:                                               ; preds = %83
  br label %85

85:                                               ; preds = %84
  %86 = load ptr, ptr @WalReceiverFunctions, align 8
  %87 = getelementptr inbounds nuw %struct.WalReceiverFunctionsType, ptr %86, i32 0, i32 11
  %88 = load ptr, ptr %87, align 8
  %89 = load ptr, ptr @wrconn, align 8
  %90 = load ptr, ptr @reply_message, align 8
  %91 = load i32, ptr getelementptr inbounds nuw (%struct.StringInfoData, ptr @reply_message, i32 0, i32 1), align 8
  call void %88(ptr noundef %89, ptr noundef %90, i32 noundef %91)
  store i32 0, ptr %7, align 4
  br label %92

92:                                               ; preds = %85, %35, %18
  call void @llvm.lifetime.end.p0(i64 8, ptr %6) #16
  call void @llvm.lifetime.end.p0(i64 8, ptr %5) #16
  %93 = load i32, ptr %7, align 4
  switch i32 %93, label %95 [
    i32 0, label %94
    i32 1, label %94
  ]

94:                                               ; preds = %92, %92
  ret void

95:                                               ; preds = %92
  unreachable
}