; Function Attrs: nounwind uwtable
define internal fastcc void @XLogWalRcvSendReply(i1 noundef zeroext %0, i1 noundef zeroext %1) unnamed_addr #0 {
  %3 = load i32, ptr @wal_receiver_status_interval, align 4
  %4 = icmp sgt i32 %3, 0
  %or.cond.not = select i1 %0, i1 true, i1 %4
  br i1 %or.cond.not, label %5, label %88

5:                                                ; preds = %2
  %6 = tail call i64 @GetCurrentTimestamp() #16
  %.pre = load i64, ptr @LogstreamResult.0, align 8
  br i1 %0, label %.WalRcvComputeNextWakeup.exit_crit_edge, label %7

.WalRcvComputeNextWakeup.exit_crit_edge:          ; preds = %5
  %.pre12 = load i64, ptr @LogstreamResult.1, align 8
  br label %WalRcvComputeNextWakeup.exit

7:                                                ; preds = %5
  %8 = load i64, ptr @XLogWalRcvSendReply.writePtr, align 8
  %9 = icmp eq i64 %8, %.pre
  %.pre13 = load i64, ptr @LogstreamResult.1, align 8
  br i1 %9, label %10, label %WalRcvComputeNextWakeup.exit

10:                                               ; preds = %7
  %11 = load i64, ptr @XLogWalRcvSendReply.flushPtr, align 8
  %12 = icmp eq i64 %11, %.pre13
  %13 = load i64, ptr getelementptr inbounds nuw (i8, ptr @wakeup, i64 16), align 16
  %14 = icmp slt i64 %6, %13
  %or.cond = select i1 %12, i1 %14, i1 false
  br i1 %or.cond, label %88, label %WalRcvComputeNextWakeup.exit

WalRcvComputeNextWakeup.exit:                     ; preds = %.WalRcvComputeNextWakeup.exit_crit_edge, %10, %7
  %15 = phi i64 [ %.pre12, %.WalRcvComputeNextWakeup.exit_crit_edge ], [ %.pre13, %10 ], [ %.pre13, %7 ]
  %16 = load i32, ptr @wal_receiver_status_interval, align 4
  %17 = icmp slt i32 %16, 1
  %18 = zext nneg i32 %16 to i64
  %19 = mul nuw nsw i64 %18, 1000000
  %20 = add i64 %19, %6
  %storemerge = select i1 %17, i64 9223372036854775807, i64 %20
  store i64 %storemerge, ptr getelementptr inbounds nuw (i8, ptr @wakeup, i64 16), align 16
  store i64 %.pre, ptr @XLogWalRcvSendReply.writePtr, align 8
  store i64 %15, ptr @XLogWalRcvSendReply.flushPtr, align 8
  %21 = tail call i64 @GetXLogReplayRecPtr(ptr noundef null) #16
  tail call void @resetStringInfo(ptr noundef nonnull @reply_message) #16
  tail call void @enlargeStringInfo(ptr noundef nonnull @reply_message, i32 noundef 1) #16
  %22 = load ptr, ptr @reply_message, align 8
  %23 = load i32, ptr getelementptr inbounds nuw (i8, ptr @reply_message, i64 8), align 8
  %24 = sext i32 %23 to i64
  %25 = getelementptr inbounds i8, ptr %22, i64 %24
  store i8 114, ptr %25, align 1
  %26 = load i32, ptr getelementptr inbounds nuw (i8, ptr @reply_message, i64 8), align 8
  %27 = add i32 %26, 1
  store i32 %27, ptr getelementptr inbounds nuw (i8, ptr @reply_message, i64 8), align 8
  %28 = load i64, ptr @XLogWalRcvSendReply.writePtr, align 8
  tail call void @enlargeStringInfo(ptr noundef nonnull @reply_message, i32 noundef 8) #16
  %29 = tail call i64 @llvm.bswap.i64(i64 %28)
  %30 = load ptr, ptr @reply_message, align 8
  %31 = load i32, ptr getelementptr inbounds nuw (i8, ptr @reply_message, i64 8), align 8
  %32 = sext i32 %31 to i64
  %33 = getelementptr inbounds i8, ptr %30, i64 %32
  store i64 %29, ptr %33, align 1
  %34 = load i32, ptr getelementptr inbounds nuw (i8, ptr @reply_message, i64 8), align 8
  %35 = add i32 %34, 8
  store i32 %35, ptr getelementptr inbounds nuw (i8, ptr @reply_message, i64 8), align 8
  %36 = load i64, ptr @XLogWalRcvSendReply.flushPtr, align 8
  tail call void @enlargeStringInfo(ptr noundef nonnull @reply_message, i32 noundef 8) #16
  %37 = tail call i64 @llvm.bswap.i64(i64 %36)
  %38 = load ptr, ptr @reply_message, align 8
  %39 = load i32, ptr getelementptr inbounds nuw (i8, ptr @reply_message, i64 8), align 8
  %40 = sext i32 %39 to i64
  %41 = getelementptr inbounds i8, ptr %38, i64 %40
  store i64 %37, ptr %41, align 1
  %42 = load i32, ptr getelementptr inbounds nuw (i8, ptr @reply_message, i64 8), align 8
  %43 = add i32 %42, 8
  store i32 %43, ptr getelementptr inbounds nuw (i8, ptr @reply_message, i64 8), align 8
  tail call void @enlargeStringInfo(ptr noundef nonnull @reply_message, i32 noundef 8) #16
  %44 = tail call i64 @llvm.bswap.i64(i64 %21)
  %45 = load ptr, ptr @reply_message, align 8
  %46 = load i32, ptr getelementptr inbounds nuw (i8, ptr @reply_message, i64 8), align 8
  %47 = sext i32 %46 to i64
  %48 = getelementptr inbounds i8, ptr %45, i64 %47
  store i64 %44, ptr %48, align 1
  %49 = load i32, ptr getelementptr inbounds nuw (i8, ptr @reply_message, i64 8), align 8
  %50 = add i32 %49, 8
  store i32 %50, ptr getelementptr inbounds nuw (i8, ptr @reply_message, i64 8), align 8
  %51 = tail call i64 @GetCurrentTimestamp() #16
  tail call void @enlargeStringInfo(ptr noundef nonnull @reply_message, i32 noundef 8) #16
  %52 = tail call i64 @llvm.bswap.i64(i64 %51)
  %53 = load ptr, ptr @reply_message, align 8
  %54 = load i32, ptr getelementptr inbounds nuw (i8, ptr @reply_message, i64 8), align 8
  %55 = sext i32 %54 to i64
  %56 = getelementptr inbounds i8, ptr %53, i64 %55
  store i64 %52, ptr %56, align 1
  %57 = load i32, ptr getelementptr inbounds nuw (i8, ptr @reply_message, i64 8), align 8
  %58 = add i32 %57, 8
  store i32 %58, ptr getelementptr inbounds nuw (i8, ptr @reply_message, i64 8), align 8
  %59 = zext i1 %1 to i8
  tail call void @enlargeStringInfo(ptr noundef nonnull @reply_message, i32 noundef 1) #16
  %60 = load ptr, ptr @reply_message, align 8
  %61 = load i32, ptr getelementptr inbounds nuw (i8, ptr @reply_message, i64 8), align 8
  %62 = sext i32 %61 to i64
  %63 = getelementptr inbounds i8, ptr %60, i64 %62
  store i8 %59, ptr %63, align 1
  %64 = load i32, ptr getelementptr inbounds nuw (i8, ptr @reply_message, i64 8), align 8
  %65 = add i32 %64, 1
  store i32 %65, ptr getelementptr inbounds nuw (i8, ptr @reply_message, i64 8), align 8
  %66 = tail call zeroext i1 @errstart(i32 noundef 13, ptr noundef null) #16
  br i1 %66, label %67, label %81

67:                                               ; preds = %WalRcvComputeNextWakeup.exit
  %68 = load i64, ptr @XLogWalRcvSendReply.writePtr, align 8
  %69 = lshr i64 %68, 32
  %70 = trunc nuw i64 %69 to i32
  %71 = trunc i64 %68 to i32
  %72 = load i64, ptr @XLogWalRcvSendReply.flushPtr, align 8
  %73 = lshr i64 %72, 32
  %74 = trunc nuw i64 %73 to i32
  %75 = trunc i64 %72 to i32
  %76 = lshr i64 %21, 32
  %77 = trunc nuw i64 %76 to i32
  %78 = trunc i64 %21 to i32
  %79 = select i1 %1, ptr @.str.37, ptr @.str.38
  %80 = tail call i32 (ptr, ...) @errmsg_internal(ptr noundef nonnull @.str.36, i32 noundef %70, i32 noundef %71, i32 noundef %74, i32 noundef %75, i32 noundef %77, i32 noundef %78, ptr noundef nonnull %79) #16
  tail call void @errfinish(ptr noundef nonnull @.str.1, i32 noundef 1154, ptr noundef nonnull @__func__.XLogWalRcvSendReply) #16
  br label %81

81:                                               ; preds = %67, %WalRcvComputeNextWakeup.exit
  %82 = load ptr, ptr @WalReceiverFunctions, align 8
  %83 = getelementptr inbounds nuw i8, ptr %82, i64 88
  %84 = load ptr, ptr %83, align 8
  %85 = load ptr, ptr @wrconn, align 8
  %86 = load ptr, ptr @reply_message, align 8
  %87 = load i32, ptr getelementptr inbounds nuw (i8, ptr @reply_message, i64 8), align 8
  tail call void %84(ptr noundef %85, ptr noundef %86, i32 noundef %87) #16
  br label %88

88:                                               ; preds = %10, %2, %81
  ret void
}